---
triple:          'arm64-apple-darwin'
binary-path:     prova
relocations:
  - { offsetInCU: 0x2DFB, offset: 0x2DFB, size: 0x8, addend: 0x0, symName: __ZNSt3__119__debug_db_insert_cB7v160006INS_12basic_stringIcNS_11char_traitsIcEENS_9allocatorIcEEEEEEvPT_, symObjAddr: 0x538, symBinAddr: 0x1000029A0, symSize: 0x10 }
  - { offsetInCU: 0x2E2C, offset: 0x2E2C, size: 0x8, addend: 0x0, symName: __ZNSt3__130__libcpp_is_constant_evaluatedB7v160006Ev, symObjAddr: 0x6D8, symBinAddr: 0x100002B40, symSize: 0xC }
  - { offsetInCU: 0x2E49, offset: 0x2E49, size: 0x8, addend: 0x0, symName: __ZNSt3__117__libcpp_allocateB7v160006Emm, symObjAddr: 0x9D0, symBinAddr: 0x100002E38, symSize: 0x28 }
  - { offsetInCU: 0x2E86, offset: 0x2E86, size: 0x8, addend: 0x0, symName: __ZNSt3__121__libcpp_operator_newB7v160006IJmEEEPvDpT_, symObjAddr: 0xA0C, symBinAddr: 0x100002E74, symSize: 0x24 }
  - { offsetInCU: 0x303A, offset: 0x303A, size: 0x8, addend: 0x0, symName: __ZSt28__throw_bad_array_new_lengthB7v160006v, symObjAddr: 0x99C, symBinAddr: 0x100002E04, symSize: 0x34 }
  - { offsetInCU: 0x5417, offset: 0x5417, size: 0x8, addend: 0x0, symName: __ZN7LocacaoC2ENSt3__112basic_stringIcNS0_11char_traitsIcEENS0_9allocatorIcEEEEdi, symObjAddr: 0x0, symBinAddr: 0x100002468, symSize: 0x248 }
  - { offsetInCU: 0x546C, offset: 0x546C, size: 0x8, addend: 0x0, symName: __ZNSt3__112basic_stringIcNS_11char_traitsIcEENS_9allocatorIcEEEC1B7v160006Ev, symObjAddr: 0x248, symBinAddr: 0x1000026B0, symSize: 0x2C }
  - { offsetInCU: 0x54F3, offset: 0x54F3, size: 0x8, addend: 0x0, symName: __ZNSt16invalid_argumentC1B7v160006EPKc, symObjAddr: 0x274, symBinAddr: 0x1000026DC, symSize: 0x34 }
  - { offsetInCU: 0x5529, offset: 0x5529, size: 0x8, addend: 0x0, symName: __ZN7LocacaoD2Ev, symObjAddr: 0x2B4, symBinAddr: 0x10000271C, symSize: 0x40 }
  - { offsetInCU: 0x5553, offset: 0x5553, size: 0x8, addend: 0x0, symName: __ZN7LocacaoD1Ev, symObjAddr: 0x2F4, symBinAddr: 0x10000275C, symSize: 0x14 }
  - { offsetInCU: 0x557D, offset: 0x557D, size: 0x8, addend: 0x0, symName: __ZN7LocacaoD0Ev, symObjAddr: 0x308, symBinAddr: 0x100002770, symSize: 0xC }
  - { offsetInCU: 0x55A7, offset: 0x55A7, size: 0x8, addend: 0x0, symName: __ZN7Locacao11getEnderecoEv, symObjAddr: 0x314, symBinAddr: 0x10000277C, symSize: 0x3C }
  - { offsetInCU: 0x55CD, offset: 0x55CD, size: 0x8, addend: 0x0, symName: __ZN7Locacao8getPrecoEv, symObjAddr: 0x350, symBinAddr: 0x1000027B8, symSize: 0x18 }
  - { offsetInCU: 0x55F3, offset: 0x55F3, size: 0x8, addend: 0x0, symName: __ZN7Locacao8setPrecoEd, symObjAddr: 0x368, symBinAddr: 0x1000027D0, symSize: 0xEC }
  - { offsetInCU: 0x5627, offset: 0x5627, size: 0x8, addend: 0x0, symName: __ZN7Locacao13getVencimentoEv, symObjAddr: 0x454, symBinAddr: 0x1000028BC, symSize: 0x18 }
  - { offsetInCU: 0x564D, offset: 0x564D, size: 0x8, addend: 0x0, symName: __ZNSt16invalid_argumentC2B7v160006EPKc, symObjAddr: 0x46C, symBinAddr: 0x1000028D4, symSize: 0x4C }
  - { offsetInCU: 0x5683, offset: 0x5683, size: 0x8, addend: 0x0, symName: __ZNSt3__112basic_stringIcNS_11char_traitsIcEENS_9allocatorIcEEEC2B7v160006Ev, symObjAddr: 0x4B8, symBinAddr: 0x100002920, symSize: 0x44 }
  - { offsetInCU: 0x56B0, offset: 0x56B0, size: 0x8, addend: 0x0, symName: __ZNSt3__117__compressed_pairINS_12basic_stringIcNS_11char_traitsIcEENS_9allocatorIcEEE5__repES5_EC1B7v160006INS_18__default_init_tagESA_EEOT_OT0_, symObjAddr: 0x4FC, symBinAddr: 0x100002964, symSize: 0x3C }
  - { offsetInCU: 0x5706, offset: 0x5706, size: 0x8, addend: 0x0, symName: __ZNSt3__112basic_stringIcNS_11char_traitsIcEENS_9allocatorIcEEE14__default_initB7v160006Ev, symObjAddr: 0x548, symBinAddr: 0x1000029B0, symSize: 0xB0 }
  - { offsetInCU: 0x5756, offset: 0x5756, size: 0x8, addend: 0x0, symName: __ZNSt3__117__compressed_pairINS_12basic_stringIcNS_11char_traitsIcEENS_9allocatorIcEEE5__repES5_EC2B7v160006INS_18__default_init_tagESA_EEOT_OT0_, symObjAddr: 0x5F8, symBinAddr: 0x100002A60, symSize: 0x3C }
  - { offsetInCU: 0x57AC, offset: 0x57AC, size: 0x8, addend: 0x0, symName: __ZNSt3__122__compressed_pair_elemINS_12basic_stringIcNS_11char_traitsIcEENS_9allocatorIcEEE5__repELi0ELb0EEC2B7v160006ENS_18__default_init_tagE, symObjAddr: 0x634, symBinAddr: 0x100002A9C, symSize: 0x14 }
  - { offsetInCU: 0x57DE, offset: 0x57DE, size: 0x8, addend: 0x0, symName: __ZNSt3__122__compressed_pair_elemINS_9allocatorIcEELi1ELb1EEC2B7v160006ENS_18__default_init_tagE, symObjAddr: 0x648, symBinAddr: 0x100002AB0, symSize: 0x2C }
  - { offsetInCU: 0x5810, offset: 0x5810, size: 0x8, addend: 0x0, symName: __ZNSt3__19allocatorIcEC2B7v160006Ev, symObjAddr: 0x674, symBinAddr: 0x100002ADC, symSize: 0x2C }
  - { offsetInCU: 0x5838, offset: 0x5838, size: 0x8, addend: 0x0, symName: __ZNSt3__116__non_trivial_ifILb1ENS_9allocatorIcEEEC2B7v160006Ev, symObjAddr: 0x6A0, symBinAddr: 0x100002B08, symSize: 0x14 }
  - { offsetInCU: 0x5860, offset: 0x5860, size: 0x8, addend: 0x0, symName: __ZNSt3__117__compressed_pairINS_12basic_stringIcNS_11char_traitsIcEENS_9allocatorIcEEE5__repES5_E5firstB7v160006Ev, symObjAddr: 0x6B4, symBinAddr: 0x100002B1C, symSize: 0x24 }
  - { offsetInCU: 0x5884, offset: 0x5884, size: 0x8, addend: 0x0, symName: __ZNSt3__112basic_stringIcNS_11char_traitsIcEENS_9allocatorIcEEE11__recommendB7v160006Em, symObjAddr: 0x6E4, symBinAddr: 0x100002B4C, symSize: 0x9C }
  - { offsetInCU: 0x58B6, offset: 0x58B6, size: 0x8, addend: 0x0, symName: __ZNSt3__116allocator_traitsINS_9allocatorIcEEE8allocateB7v160006ERS2_m, symObjAddr: 0x780, symBinAddr: 0x100002BE8, symSize: 0x2C }
  - { offsetInCU: 0x58E8, offset: 0x58E8, size: 0x8, addend: 0x0, symName: __ZNSt3__112basic_stringIcNS_11char_traitsIcEENS_9allocatorIcEEE7__allocB7v160006Ev, symObjAddr: 0x7AC, symBinAddr: 0x100002C14, symSize: 0x24 }
  - { offsetInCU: 0x590C, offset: 0x590C, size: 0x8, addend: 0x0, symName: __ZNSt3__112basic_stringIcNS_11char_traitsIcEENS_9allocatorIcEEE16__begin_lifetimeB7v160006EPcm, symObjAddr: 0x7D0, symBinAddr: 0x100002C38, symSize: 0x14 }
  - { offsetInCU: 0x593E, offset: 0x593E, size: 0x8, addend: 0x0, symName: __ZNSt3__112basic_stringIcNS_11char_traitsIcEENS_9allocatorIcEEE18__set_long_pointerB7v160006EPc, symObjAddr: 0x7E4, symBinAddr: 0x100002C4C, symSize: 0x38 }
  - { offsetInCU: 0x5971, offset: 0x5971, size: 0x8, addend: 0x0, symName: __ZNSt3__112basic_stringIcNS_11char_traitsIcEENS_9allocatorIcEEE14__set_long_capB7v160006Em, symObjAddr: 0x81C, symBinAddr: 0x100002C84, symSize: 0x70 }
  - { offsetInCU: 0x59A4, offset: 0x59A4, size: 0x8, addend: 0x0, symName: __ZNSt3__112basic_stringIcNS_11char_traitsIcEENS_9allocatorIcEEE15__set_long_sizeB7v160006Em, symObjAddr: 0x88C, symBinAddr: 0x100002CF4, symSize: 0x38 }
  - { offsetInCU: 0x59D7, offset: 0x59D7, size: 0x8, addend: 0x0, symName: __ZNSt3__122__compressed_pair_elemINS_12basic_stringIcNS_11char_traitsIcEENS_9allocatorIcEEE5__repELi0ELb0EE5__getB7v160006Ev, symObjAddr: 0x8C4, symBinAddr: 0x100002D2C, symSize: 0x14 }
  - { offsetInCU: 0x59FB, offset: 0x59FB, size: 0x8, addend: 0x0, symName: __ZNSt3__112basic_stringIcNS_11char_traitsIcEENS_9allocatorIcEEE10__align_itB7v160006ILm16EEEmm, symObjAddr: 0x8D8, symBinAddr: 0x100002D40, symSize: 0x1C }
  - { offsetInCU: 0x5A28, offset: 0x5A28, size: 0x8, addend: 0x0, symName: __ZNSt3__19allocatorIcE8allocateB7v160006Em, symObjAddr: 0x8F4, symBinAddr: 0x100002D5C, symSize: 0x84 }
  - { offsetInCU: 0x5A64, offset: 0x5A64, size: 0x8, addend: 0x0, symName: __ZNSt3__116allocator_traitsINS_9allocatorIcEEE8max_sizeB7v160006IS2_vEEmRKS2_, symObjAddr: 0x978, symBinAddr: 0x100002DE0, symSize: 0x24 }
  - { offsetInCU: 0x5A91, offset: 0x5A91, size: 0x8, addend: 0x0, symName: __ZNKSt3__19allocatorIcE8max_sizeB7v160006Ev, symObjAddr: 0x9F8, symBinAddr: 0x100002E60, symSize: 0x14 }
  - { offsetInCU: 0x5AB5, offset: 0x5AB5, size: 0x8, addend: 0x0, symName: __ZNSt3__117__compressed_pairINS_12basic_stringIcNS_11char_traitsIcEENS_9allocatorIcEEE5__repES5_E6secondB7v160006Ev, symObjAddr: 0xA30, symBinAddr: 0x100002E98, symSize: 0x24 }
  - { offsetInCU: 0x5AD9, offset: 0x5AD9, size: 0x8, addend: 0x0, symName: __ZNSt3__122__compressed_pair_elemINS_9allocatorIcEELi1ELb1EE5__getB7v160006Ev, symObjAddr: 0xA54, symBinAddr: 0x100002EBC, symSize: 0x14 }
  - { offsetInCU: 0x28D2, offset: 0x83ED, size: 0x8, addend: 0x0, symName: __ZNSt3__124__put_character_sequenceB7v160006IcNS_11char_traitsIcEEEERNS_13basic_ostreamIT_T0_EES7_PKS4_m, symObjAddr: 0x4C8, symBinAddr: 0x10000338C, symSize: 0x1F4 }
  - { offsetInCU: 0x420A, offset: 0x9D25, size: 0x8, addend: 0x0, symName: __ZNSt3__1lsB7v160006INS_11char_traitsIcEEEERNS_13basic_ostreamIcT_EES6_PKc, symObjAddr: 0x434, symBinAddr: 0x1000032F8, symSize: 0x48 }
  - { offsetInCU: 0x4250, offset: 0x9D6B, size: 0x8, addend: 0x0, symName: __ZNSt3__1lsB7v160006IcNS_11char_traitsIcEENS_9allocatorIcEEEERNS_13basic_ostreamIT_T0_EES9_RKNS_12basic_stringIS6_S7_T1_EE, symObjAddr: 0x47C, symBinAddr: 0x100003340, symSize: 0x4C }
  - { offsetInCU: 0x42A8, offset: 0x9DC3, size: 0x8, addend: 0x0, symName: __ZNSt3__116__pad_and_outputB7v160006IcNS_11char_traitsIcEEEENS_19ostreambuf_iteratorIT_T0_EES6_PKS4_S8_S8_RNS_8ios_baseES4_, symObjAddr: 0x720, symBinAddr: 0x1000035E4, symSize: 0x248 }
  - { offsetInCU: 0x4377, offset: 0x9E92, size: 0x8, addend: 0x0, symName: __ZNSt3__112__to_addressB7v160006IKcEEPT_S3_, symObjAddr: 0xCA8, symBinAddr: 0x100003A64, symSize: 0x14 }
  - { offsetInCU: 0x43E0, offset: 0x9EFB, size: 0x8, addend: 0x0, symName: __ZNSt3__19use_facetB7v160006INS_5ctypeIcEEEERKT_RKNS_6localeE, symObjAddr: 0xF8C, symBinAddr: 0x100003D3C, symSize: 0x2C }
  - { offsetInCU: 0x48B0, offset: 0xA3CB, size: 0x8, addend: 0x0, symName: __ZNSt3__118__constexpr_strlenB7v160006EPKc, symObjAddr: 0x1024, symBinAddr: 0x100003DD4, symSize: 0x24 }
  - { offsetInCU: 0x6ABF, offset: 0xC5DA, size: 0x8, addend: 0x0, symName: __ZN16LocacaoComercialC2ENSt3__112basic_stringIcNS0_11char_traitsIcEENS0_9allocatorIcEEEEdii, symObjAddr: 0x0, symBinAddr: 0x100002ED0, symSize: 0xB0 }
  - { offsetInCU: 0x6B22, offset: 0xC63D, size: 0x8, addend: 0x0, symName: __ZN16LocacaoComercialC1ENSt3__112basic_stringIcNS0_11char_traitsIcEENS0_9allocatorIcEEEEdii, symObjAddr: 0xBC, symBinAddr: 0x100002F80, symSize: 0x4C }
  - { offsetInCU: 0x6B85, offset: 0xC6A0, size: 0x8, addend: 0x0, symName: __ZN16LocacaoComercialD2Ev, symObjAddr: 0x108, symBinAddr: 0x100002FCC, symSize: 0x2C }
  - { offsetInCU: 0x6BAF, offset: 0xC6CA, size: 0x8, addend: 0x0, symName: __ZN16LocacaoComercialD1Ev, symObjAddr: 0x134, symBinAddr: 0x100002FF8, symSize: 0x2C }
  - { offsetInCU: 0x6BD9, offset: 0xC6F4, size: 0x8, addend: 0x0, symName: __ZN16LocacaoComercialD0Ev, symObjAddr: 0x160, symBinAddr: 0x100003024, symSize: 0x58 }
  - { offsetInCU: 0x6C03, offset: 0xC71E, size: 0x8, addend: 0x0, symName: __ZN16LocacaoComercial7getAreaEv, symObjAddr: 0x1B8, symBinAddr: 0x10000307C, symSize: 0x18 }
  - { offsetInCU: 0x6C29, offset: 0xC744, size: 0x8, addend: 0x0, symName: __ZN16LocacaoComercial13calcularTotalEi, symObjAddr: 0x1D0, symBinAddr: 0x100003094, symSize: 0x110 }
  - { offsetInCU: 0x6C5D, offset: 0xC778, size: 0x8, addend: 0x0, symName: __ZN16LocacaoComercial8imprimirEv, symObjAddr: 0x2E0, symBinAddr: 0x1000031A4, symSize: 0x154 }
  - { offsetInCU: 0x6C83, offset: 0xC79E, size: 0x8, addend: 0x0, symName: __ZNSt3__111char_traitsIcE6lengthEPKc, symObjAddr: 0x6BC, symBinAddr: 0x100003580, symSize: 0x48 }
  - { offsetInCU: 0x6CC3, offset: 0xC7DE, size: 0x8, addend: 0x0, symName: __ZNKSt3__113basic_ostreamIcNS_11char_traitsIcEEE6sentrycvbB7v160006Ev, symObjAddr: 0x704, symBinAddr: 0x1000035C8, symSize: 0x1C }
  - { offsetInCU: 0x6CE7, offset: 0xC802, size: 0x8, addend: 0x0, symName: __ZNSt3__119ostreambuf_iteratorIcNS_11char_traitsIcEEEC1B7v160006ERNS_13basic_ostreamIcS2_EE, symObjAddr: 0x968, symBinAddr: 0x10000382C, symSize: 0x34 }
  - { offsetInCU: 0x6D1D, offset: 0xC838, size: 0x8, addend: 0x0, symName: __ZNKSt3__18ios_base5flagsB7v160006Ev, symObjAddr: 0x99C, symBinAddr: 0x100003860, symSize: 0x18 }
  - { offsetInCU: 0x6D44, offset: 0xC85F, size: 0x8, addend: 0x0, symName: __ZNKSt3__19basic_iosIcNS_11char_traitsIcEEE4fillB7v160006Ev, symObjAddr: 0x9B4, symBinAddr: 0x100003878, symSize: 0x64 }
  - { offsetInCU: 0x6D6B, offset: 0xC886, size: 0x8, addend: 0x0, symName: __ZNKSt3__119ostreambuf_iteratorIcNS_11char_traitsIcEEE6failedB7v160006Ev, symObjAddr: 0xA18, symBinAddr: 0x1000038DC, symSize: 0x24 }
  - { offsetInCU: 0x6D8F, offset: 0xC8AA, size: 0x8, addend: 0x0, symName: __ZNSt3__19basic_iosIcNS_11char_traitsIcEEE8setstateB7v160006Ej, symObjAddr: 0xA3C, symBinAddr: 0x100003900, symSize: 0x2C }
  - { offsetInCU: 0x6DC2, offset: 0xC8DD, size: 0x8, addend: 0x0, symName: __ZNKSt3__18ios_base5widthB7v160006Ev, symObjAddr: 0xA68, symBinAddr: 0x10000392C, symSize: 0x18 }
  - { offsetInCU: 0x6DE9, offset: 0xC904, size: 0x8, addend: 0x0, symName: __ZNSt3__115basic_streambufIcNS_11char_traitsIcEEE5sputnB7v160006EPKcl, symObjAddr: 0xA80, symBinAddr: 0x100003944, symSize: 0x3C }
  - { offsetInCU: 0x6E29, offset: 0xC944, size: 0x8, addend: 0x0, symName: __ZNSt3__112basic_stringIcNS_11char_traitsIcEENS_9allocatorIcEEEC1B7v160006Emc, symObjAddr: 0xABC, symBinAddr: 0x100003980, symSize: 0x3C }
  - { offsetInCU: 0x6E6F, offset: 0xC98A, size: 0x8, addend: 0x0, symName: __ZNKSt3__112basic_stringIcNS_11char_traitsIcEENS_9allocatorIcEEE4dataB7v160006Ev, symObjAddr: 0xAF8, symBinAddr: 0x1000039BC, symSize: 0x28 }
  - { offsetInCU: 0x6E93, offset: 0xC9AE, size: 0x8, addend: 0x0, symName: __ZNSt3__18ios_base5widthB7v160006El, symObjAddr: 0xB20, symBinAddr: 0x1000039E4, symSize: 0x2C }
  - { offsetInCU: 0x6ED8, offset: 0xC9F3, size: 0x8, addend: 0x0, symName: __ZNSt3__112basic_stringIcNS_11char_traitsIcEENS_9allocatorIcEEEC2B7v160006Emc, symObjAddr: 0xB4C, symBinAddr: 0x100003A10, symSize: 0x54 }
  - { offsetInCU: 0x6F1E, offset: 0xCA39, size: 0x8, addend: 0x0, symName: __ZNKSt3__112basic_stringIcNS_11char_traitsIcEENS_9allocatorIcEEE13__get_pointerB7v160006Ev, symObjAddr: 0xCBC, symBinAddr: 0x100003A78, symSize: 0x54 }
  - { offsetInCU: 0x6F42, offset: 0xCA5D, size: 0x8, addend: 0x0, symName: __ZNKSt3__112basic_stringIcNS_11char_traitsIcEENS_9allocatorIcEEE9__is_longB7v160006Ev, symObjAddr: 0xD10, symBinAddr: 0x100003ACC, symSize: 0x74 }
  - { offsetInCU: 0x6F66, offset: 0xCA81, size: 0x8, addend: 0x0, symName: __ZNKSt3__112basic_stringIcNS_11char_traitsIcEENS_9allocatorIcEEE18__get_long_pointerB7v160006Ev, symObjAddr: 0xD84, symBinAddr: 0x100003B40, symSize: 0x28 }
  - { offsetInCU: 0x6F8A, offset: 0xCAA5, size: 0x8, addend: 0x0, symName: __ZNKSt3__112basic_stringIcNS_11char_traitsIcEENS_9allocatorIcEEE19__get_short_pointerB7v160006Ev, symObjAddr: 0xDAC, symBinAddr: 0x100003B68, symSize: 0x28 }
  - { offsetInCU: 0x6FAE, offset: 0xCAC9, size: 0x8, addend: 0x0, symName: __ZNKSt3__117__compressed_pairINS_12basic_stringIcNS_11char_traitsIcEENS_9allocatorIcEEE5__repES5_E5firstB7v160006Ev, symObjAddr: 0xDE0, symBinAddr: 0x100003B90, symSize: 0x24 }
  - { offsetInCU: 0x6FD2, offset: 0xCAED, size: 0x8, addend: 0x0, symName: __ZNKSt3__122__compressed_pair_elemINS_12basic_stringIcNS_11char_traitsIcEENS_9allocatorIcEEE5__repELi0ELb0EE5__getB7v160006Ev, symObjAddr: 0xE04, symBinAddr: 0x100003BB4, symSize: 0x14 }
  - { offsetInCU: 0x6FF7, offset: 0xCB12, size: 0x8, addend: 0x0, symName: __ZNSt3__114pointer_traitsIPKcE10pointer_toB7v160006ERS1_, symObjAddr: 0xE18, symBinAddr: 0x100003BC8, symSize: 0x14 }
  - { offsetInCU: 0x7018, offset: 0xCB33, size: 0x8, addend: 0x0, symName: __ZNSt3__119ostreambuf_iteratorIcNS_11char_traitsIcEEEC2B7v160006ERNS_13basic_ostreamIcS2_EE, symObjAddr: 0xE2C, symBinAddr: 0x100003BDC, symSize: 0x68 }
  - { offsetInCU: 0x704E, offset: 0xCB69, size: 0x8, addend: 0x0, symName: __ZNKSt3__19basic_iosIcNS_11char_traitsIcEEE5rdbufB7v160006Ev, symObjAddr: 0xE94, symBinAddr: 0x100003C44, symSize: 0x24 }
  - { offsetInCU: 0x7075, offset: 0xCB90, size: 0x8, addend: 0x0, symName: __ZNKSt3__18ios_base5rdbufB7v160006Ev, symObjAddr: 0xEB8, symBinAddr: 0x100003C68, symSize: 0x18 }
  - { offsetInCU: 0x709A, offset: 0xCBB5, size: 0x8, addend: 0x0, symName: __ZNSt3__111char_traitsIcE11eq_int_typeEii, symObjAddr: 0xED0, symBinAddr: 0x100003C80, symSize: 0x28 }
  - { offsetInCU: 0x70CA, offset: 0xCBE5, size: 0x8, addend: 0x0, symName: __ZNSt3__111char_traitsIcE3eofEv, symObjAddr: 0xEF8, symBinAddr: 0x100003CA8, symSize: 0x8 }
  - { offsetInCU: 0x70DD, offset: 0xCBF8, size: 0x8, addend: 0x0, symName: __ZNKSt3__19basic_iosIcNS_11char_traitsIcEEE5widenB7v160006Ec, symObjAddr: 0xF00, symBinAddr: 0x100003CB0, symSize: 0x8C }
  - { offsetInCU: 0x714A, offset: 0xCC65, size: 0x8, addend: 0x0, symName: __ZNKSt3__15ctypeIcE5widenB7v160006Ec, symObjAddr: 0xFB8, symBinAddr: 0x100003D68, symSize: 0x38 }
  - { offsetInCU: 0x717D, offset: 0xCC98, size: 0x8, addend: 0x0, symName: __ZNSt3__18ios_base8setstateB7v160006Ej, symObjAddr: 0xFF0, symBinAddr: 0x100003DA0, symSize: 0x34 }
  - { offsetInCU: 0x71B3, offset: 0xCCCE, size: 0x8, addend: 0x0, symName: __ZNKSt3__112basic_stringIcNS_11char_traitsIcEENS_9allocatorIcEEE4sizeB7v160006Ev, symObjAddr: 0x1048, symBinAddr: 0x100003DF8, symSize: 0x54 }
  - { offsetInCU: 0x71D7, offset: 0xCCF2, size: 0x8, addend: 0x0, symName: __ZNKSt3__112basic_stringIcNS_11char_traitsIcEENS_9allocatorIcEEE15__get_long_sizeB7v160006Ev, symObjAddr: 0x109C, symBinAddr: 0x100003E4C, symSize: 0x28 }
  - { offsetInCU: 0x71FB, offset: 0xCD16, size: 0x8, addend: 0x0, symName: __ZNKSt3__112basic_stringIcNS_11char_traitsIcEENS_9allocatorIcEEE16__get_short_sizeB7v160006Ev, symObjAddr: 0x10C4, symBinAddr: 0x100003E74, symSize: 0x34 }
  - { offsetInCU: 0x4153, offset: 0x10ED3, size: 0x8, addend: 0x0, symName: __ZNSt3__119__debug_db_insert_cB7v160006INS_6vectorIP7LocacaoNS_9allocatorIS3_EEEEEEvPT_, symObjAddr: 0x960, symBinAddr: 0x10000473C, symSize: 0x10 }
  - { offsetInCU: 0x4184, offset: 0x10F04, size: 0x8, addend: 0x0, symName: __ZNSt3__112__to_addressB7v160006IP7LocacaoEEPT_S4_, symObjAddr: 0x122C, symBinAddr: 0x100004A58, symSize: 0x14 }
  - { offsetInCU: 0x41BA, offset: 0x10F3A, size: 0x8, addend: 0x0, symName: __ZNSt3__118__debug_db_erase_cB7v160006INS_6vectorIP7LocacaoNS_9allocatorIS3_EEEEEEvPT_, symObjAddr: 0x1558, symBinAddr: 0x100004D84, symSize: 0x10 }
  - { offsetInCU: 0x41EB, offset: 0x10F6B, size: 0x8, addend: 0x0, symName: __ZNSt3__119__libcpp_deallocateB7v160006EPvmm, symObjAddr: 0x1634, symBinAddr: 0x100004E60, symSize: 0x30 }
  - { offsetInCU: 0x4234, offset: 0x10FB4, size: 0x8, addend: 0x0, symName: __ZNSt3__127__do_deallocate_handle_sizeB7v160006IJEEEvPvmDpT_, symObjAddr: 0x1664, symBinAddr: 0x100004E90, symSize: 0x28 }
  - { offsetInCU: 0x4274, offset: 0x10FF4, size: 0x8, addend: 0x0, symName: __ZNSt3__124__libcpp_operator_deleteB7v160006IJPvEEEvDpT_, symObjAddr: 0x168C, symBinAddr: 0x100004EB8, symSize: 0x24 }
  - { offsetInCU: 0x42AA, offset: 0x1102A, size: 0x8, addend: 0x0, symName: __ZNSt3__13maxB7v160006ImEERKT_S3_S3_, symObjAddr: 0x1C7C, symBinAddr: 0x1000054A8, symSize: 0x2C }
  - { offsetInCU: 0x42EE, offset: 0x1106E, size: 0x8, addend: 0x0, symName: __ZNSt3__13minB7v160006ImEERKT_S3_S3_, symObjAddr: 0x1CA8, symBinAddr: 0x1000054D4, symSize: 0x2C }
  - { offsetInCU: 0x453D, offset: 0x112BD, size: 0x8, addend: 0x0, symName: __ZNSt3__13minB7v160006ImNS_6__lessImmEEEERKT_S5_S5_T0_, symObjAddr: 0x1D34, symBinAddr: 0x100005560, symSize: 0x54 }
  - { offsetInCU: 0x45D3, offset: 0x11353, size: 0x8, addend: 0x0, symName: __ZNSt3__120__throw_length_errorB7v160006EPKc, symObjAddr: 0x1E10, symBinAddr: 0x10000563C, symSize: 0x64 }
  - { offsetInCU: 0x45FC, offset: 0x1137C, size: 0x8, addend: 0x0, symName: __ZNSt3__13maxB7v160006ImNS_6__lessImmEEEERKT_S5_S5_T0_, symObjAddr: 0x1EF4, symBinAddr: 0x100005720, symSize: 0x54 }
  - { offsetInCU: 0x4657, offset: 0x113D7, size: 0x8, addend: 0x0, symName: __ZNSt3__119__allocate_at_leastB7v160006INS_9allocatorIP7LocacaoEEEENS_19__allocation_resultINS_16allocator_traitsIT_E7pointerEEERS7_m, symObjAddr: 0x2058, symBinAddr: 0x100005884, symSize: 0x40 }
  - { offsetInCU: 0x469B, offset: 0x1141B, size: 0x8, addend: 0x0, symName: __ZNSt3__142__uninitialized_allocator_move_if_noexceptB7v160006INS_9allocatorIP7LocacaoEENS_16reverse_iteratorIPS3_EES7_S3_vEET1_RT_T0_SB_S8_, symObjAddr: 0x2238, symBinAddr: 0x100005A64, symSize: 0xE8 }
  - { offsetInCU: 0x4719, offset: 0x11499, size: 0x8, addend: 0x0, symName: __ZNSt3__14swapB7v160006IPP7LocacaoEEvRT_S5_, symObjAddr: 0x236C, symBinAddr: 0x100005B98, symSize: 0x3C }
  - { offsetInCU: 0x476C, offset: 0x114EC, size: 0x8, addend: 0x0, symName: __ZNSt3__125__debug_db_invalidate_allB7v160006INS_6vectorIP7LocacaoNS_9allocatorIS3_EEEEEEvPT_, symObjAddr: 0x2454, symBinAddr: 0x100005C80, symSize: 0x10 }
  - { offsetInCU: 0x479D, offset: 0x1151D, size: 0x8, addend: 0x0, symName: __ZNSt3__1neB7v160006IPP7LocacaoS3_EEbRKNS_16reverse_iteratorIT_EERKNS4_IT0_EE, symObjAddr: 0x2464, symBinAddr: 0x100005C90, symSize: 0x48 }
  - { offsetInCU: 0x4811, offset: 0x11591, size: 0x8, addend: 0x0, symName: __ZNSt3__114__construct_atB7v160006IP7LocacaoJS2_EPS2_EEPT_S5_DpOT0_, symObjAddr: 0x24AC, symBinAddr: 0x100005CD8, symSize: 0x2C }
  - { offsetInCU: 0x4884, offset: 0x11604, size: 0x8, addend: 0x0, symName: __ZNSt3__112__to_addressB7v160006INS_16reverse_iteratorIPP7LocacaoEEvEENS_5decayIDTclsr19__to_address_helperIT_EE6__callclsr3stdE7declvalIRKS7_EEEEE4typeES9_, symObjAddr: 0x24D8, symBinAddr: 0x100005D04, symSize: 0x24 }
  - { offsetInCU: 0x48BB, offset: 0x1163B, size: 0x8, addend: 0x0, symName: __ZNSt3__14moveB7v160006INS_16reverse_iteratorIPP7LocacaoEES5_EET0_T_S7_S6_, symObjAddr: 0x2544, symBinAddr: 0x100005D70, symSize: 0x78 }
  - { offsetInCU: 0x4940, offset: 0x116C0, size: 0x8, addend: 0x0, symName: __ZNSt3__16__moveB7v160006INS_17_ClassicAlgPolicyENS_16reverse_iteratorIPP7LocacaoEES6_S6_EENS_4pairIT0_T2_EES8_T1_S9_, symObjAddr: 0x262C, symBinAddr: 0x100005E58, symSize: 0x64 }
  - { offsetInCU: 0x49AD, offset: 0x1172D, size: 0x8, addend: 0x0, symName: __ZNSt3__123__dispatch_copy_or_moveB7v160006INS_17_ClassicAlgPolicyENS_11__move_loopIS1_EENS_14__move_trivialENS_16reverse_iteratorIPP7LocacaoEES9_S9_EENS_4pairIT2_T4_EESB_T3_SC_, symObjAddr: 0x2690, symBinAddr: 0x100005EBC, symSize: 0x7C }
  - { offsetInCU: 0x4A2C, offset: 0x117AC, size: 0x8, addend: 0x0, symName: __ZNSt3__121__unwrap_and_dispatchB7v160006INS_10__overloadINS_11__move_loopINS_17_ClassicAlgPolicyEEENS_14__move_trivialEEENS_16reverse_iteratorIPP7LocacaoEESB_SB_Li0EEENS_4pairIT0_T2_EESD_T1_SE_, symObjAddr: 0x270C, symBinAddr: 0x100005F38, symSize: 0x12C }
  - { offsetInCU: 0x4AC0, offset: 0x11840, size: 0x8, addend: 0x0, symName: __ZNSt3__114__unwrap_rangeB7v160006INS_16reverse_iteratorIPP7LocacaoEES5_EENS_4pairIT0_S7_EET_S9_, symObjAddr: 0x2838, symBinAddr: 0x100006064, symSize: 0x84 }
  - { offsetInCU: 0x4C15, offset: 0x11995, size: 0x8, addend: 0x0, symName: __ZNSt3__113__unwrap_iterB7v160006INS_16reverse_iteratorIPP7LocacaoEENS_18__unwrap_iter_implIS5_Lb0EEELi0EEEDTclsrT0_8__unwrapclsr3stdE7declvalIT_EEEES9_, symObjAddr: 0x295C, symBinAddr: 0x100006188, symSize: 0x44 }
  - { offsetInCU: 0x4C5B, offset: 0x119DB, size: 0x8, addend: 0x0, symName: __ZNSt3__19make_pairB7v160006INS_16reverse_iteratorIPP7LocacaoEES5_EENS_4pairINS_18__unwrap_ref_decayIT_E4typeENS7_IT0_E4typeEEEOS8_OSB_, symObjAddr: 0x29A0, symBinAddr: 0x1000061CC, symSize: 0x38 }
  - { offsetInCU: 0x4CAA, offset: 0x11A2A, size: 0x8, addend: 0x0, symName: __ZNSt3__114__rewrap_rangeB7v160006INS_16reverse_iteratorIPP7LocacaoEES5_EET_S6_T0_, symObjAddr: 0x29D8, symBinAddr: 0x100006204, symSize: 0x5C }
  - { offsetInCU: 0x4CF7, offset: 0x11A77, size: 0x8, addend: 0x0, symName: __ZNSt3__113__rewrap_iterB7v160006INS_16reverse_iteratorIPP7LocacaoEES5_NS_18__unwrap_iter_implIS5_Lb0EEEEET_S8_T0_, symObjAddr: 0x2A34, symBinAddr: 0x100006260, symSize: 0x88 }
  - { offsetInCU: 0x4E01, offset: 0x11B81, size: 0x8, addend: 0x0, symName: __ZNSt3__120__throw_out_of_rangeB7v160006EPKc, symObjAddr: 0x2DE0, symBinAddr: 0x10000660C, symSize: 0x64 }
  - { offsetInCU: 0x52F4, offset: 0x12074, size: 0x8, addend: 0x0, symName: __ZNSt3__16vectorIP7LocacaoNS_9allocatorIS2_EEE26__swap_out_circular_bufferERNS_14__split_bufferIS2_RS4_EE, symObjAddr: 0x1AA8, symBinAddr: 0x1000052D4, symSize: 0x118 }
  - { offsetInCU: 0x71B4, offset: 0x13F34, size: 0x8, addend: 0x0, symName: __ZN13LocacaoRegiaoC2ENSt3__112basic_stringIcNS0_11char_traitsIcEENS0_9allocatorIcEEEE, symObjAddr: 0x0, symBinAddr: 0x100003EA8, symSize: 0xCC }
  - { offsetInCU: 0x71ED, offset: 0x13F6D, size: 0x8, addend: 0x0, symName: __ZNSt3__16vectorIP7LocacaoNS_9allocatorIS2_EEEC1B7v160006Ev, symObjAddr: 0xF8, symBinAddr: 0x100003F74, symSize: 0x2C }
  - { offsetInCU: 0x7215, offset: 0x13F95, size: 0x8, addend: 0x0, symName: __ZN13LocacaoRegiaoC1ENSt3__112basic_stringIcNS0_11char_traitsIcEENS0_9allocatorIcEEEE, symObjAddr: 0x130, symBinAddr: 0x100003FA0, symSize: 0x34 }
  - { offsetInCU: 0x724E, offset: 0x13FCE, size: 0x8, addend: 0x0, symName: __ZN13LocacaoRegiaoD2Ev, symObjAddr: 0x164, symBinAddr: 0x100003FD4, symSize: 0x144 }
  - { offsetInCU: 0x728D, offset: 0x1400D, size: 0x8, addend: 0x0, symName: __ZNKSt3__16vectorIP7LocacaoNS_9allocatorIS2_EEE5emptyB7v160006Ev, symObjAddr: 0x2A8, symBinAddr: 0x100004118, symSize: 0x28 }
  - { offsetInCU: 0x72B1, offset: 0x14031, size: 0x8, addend: 0x0, symName: __ZNSt3__16vectorIP7LocacaoNS_9allocatorIS2_EEE4backB7v160006Ev, symObjAddr: 0x2D0, symBinAddr: 0x100004140, symSize: 0x1C }
  - { offsetInCU: 0x72D4, offset: 0x14054, size: 0x8, addend: 0x0, symName: __ZNSt3__16vectorIP7LocacaoNS_9allocatorIS2_EEE8pop_backEv, symObjAddr: 0x2EC, symBinAddr: 0x10000415C, symSize: 0x2C }
  - { offsetInCU: 0x72FC, offset: 0x1407C, size: 0x8, addend: 0x0, symName: __ZNSt3__16vectorIP7LocacaoNS_9allocatorIS2_EEED1B7v160006Ev, symObjAddr: 0x318, symBinAddr: 0x100004188, symSize: 0x2C }
  - { offsetInCU: 0x7324, offset: 0x140A4, size: 0x8, addend: 0x0, symName: __ZN13LocacaoRegiaoD1Ev, symObjAddr: 0x344, symBinAddr: 0x1000041B4, symSize: 0x2C }
  - { offsetInCU: 0x734E, offset: 0x140CE, size: 0x8, addend: 0x0, symName: __ZN13LocacaoRegiaoD0Ev, symObjAddr: 0x370, symBinAddr: 0x1000041E0, symSize: 0x58 }
  - { offsetInCU: 0x7378, offset: 0x140F8, size: 0x8, addend: 0x0, symName: __ZN13LocacaoRegiao9getRegiaoEv, symObjAddr: 0x3C8, symBinAddr: 0x100004238, symSize: 0x3C }
  - { offsetInCU: 0x739E, offset: 0x1411E, size: 0x8, addend: 0x0, symName: __ZN13LocacaoRegiao16adicionarLocacaoEP7Locacao, symObjAddr: 0x404, symBinAddr: 0x100004274, symSize: 0x34 }
  - { offsetInCU: 0x73D1, offset: 0x14151, size: 0x8, addend: 0x0, symName: __ZNSt3__16vectorIP7LocacaoNS_9allocatorIS2_EEE9push_backB7v160006ERKS2_, symObjAddr: 0x438, symBinAddr: 0x1000042A8, symSize: 0x6C }
  - { offsetInCU: 0x7408, offset: 0x14188, size: 0x8, addend: 0x0, symName: __ZN13LocacaoRegiao11getLocacoesEv, symObjAddr: 0x4A4, symBinAddr: 0x100004314, symSize: 0x18 }
  - { offsetInCU: 0x742E, offset: 0x141AE, size: 0x8, addend: 0x0, symName: __ZN13LocacaoRegiao13calcularTotalEi, symObjAddr: 0x4BC, symBinAddr: 0x10000432C, symSize: 0x1F4 }
  - { offsetInCU: 0x74A3, offset: 0x14223, size: 0x8, addend: 0x0, symName: __ZNKSt3__16vectorIP7LocacaoNS_9allocatorIS2_EEE4sizeB7v160006Ev, symObjAddr: 0x6B0, symBinAddr: 0x100004520, symSize: 0x28 }
  - { offsetInCU: 0x74C6, offset: 0x14246, size: 0x8, addend: 0x0, symName: __ZNSt3__16vectorIP7LocacaoNS_9allocatorIS2_EEE2atEm, symObjAddr: 0x6D8, symBinAddr: 0x100004548, symSize: 0x60 }
  - { offsetInCU: 0x74FD, offset: 0x1427D, size: 0x8, addend: 0x0, symName: __ZN13LocacaoRegiao8imprimirEv, symObjAddr: 0x738, symBinAddr: 0x1000045A8, symSize: 0x10C }
  - { offsetInCU: 0x7540, offset: 0x142C0, size: 0x8, addend: 0x0, symName: __ZNSt3__16vectorIP7LocacaoNS_9allocatorIS2_EEEC2B7v160006Ev, symObjAddr: 0x8D8, symBinAddr: 0x1000046B4, symSize: 0x4C }
  - { offsetInCU: 0x7572, offset: 0x142F2, size: 0x8, addend: 0x0, symName: __ZNSt3__117__compressed_pairIPP7LocacaoNS_9allocatorIS2_EEEC1B7v160006IDnNS_18__default_init_tagEEEOT_OT0_, symObjAddr: 0x924, symBinAddr: 0x100004700, symSize: 0x3C }
  - { offsetInCU: 0x75C8, offset: 0x14348, size: 0x8, addend: 0x0, symName: __ZNSt3__117__compressed_pairIPP7LocacaoNS_9allocatorIS2_EEEC2B7v160006IDnNS_18__default_init_tagEEEOT_OT0_, symObjAddr: 0x970, symBinAddr: 0x10000474C, symSize: 0x40 }
  - { offsetInCU: 0x761E, offset: 0x1439E, size: 0x8, addend: 0x0, symName: __ZNSt3__122__compressed_pair_elemIPP7LocacaoLi0ELb0EEC2B7v160006IDnvEEOT_, symObjAddr: 0x9B0, symBinAddr: 0x10000478C, symSize: 0x1C }
  - { offsetInCU: 0x765E, offset: 0x143DE, size: 0x8, addend: 0x0, symName: __ZNSt3__122__compressed_pair_elemINS_9allocatorIP7LocacaoEELi1ELb1EEC2B7v160006ENS_18__default_init_tagE, symObjAddr: 0x9CC, symBinAddr: 0x1000047A8, symSize: 0x2C }
  - { offsetInCU: 0x7690, offset: 0x14410, size: 0x8, addend: 0x0, symName: __ZNSt3__19allocatorIP7LocacaoEC2B7v160006Ev, symObjAddr: 0x9F8, symBinAddr: 0x1000047D4, symSize: 0x2C }
  - { offsetInCU: 0x76B8, offset: 0x14438, size: 0x8, addend: 0x0, symName: __ZNSt3__116__non_trivial_ifILb1ENS_9allocatorIP7LocacaoEEEC2B7v160006Ev, symObjAddr: 0xA24, symBinAddr: 0x100004800, symSize: 0x14 }
  - { offsetInCU: 0x76E0, offset: 0x14460, size: 0x8, addend: 0x0, symName: __ZNSt3__16vectorIP7LocacaoNS_9allocatorIS2_EEE17__destruct_at_endB7v160006EPS2_, symObjAddr: 0xFE8, symBinAddr: 0x100004814, symSize: 0x88 }
  - { offsetInCU: 0x7722, offset: 0x144A2, size: 0x8, addend: 0x0, symName: __ZNSt3__16vectorIP7LocacaoNS_9allocatorIS2_EEE27__invalidate_iterators_pastB7v160006EPS2_, symObjAddr: 0x1070, symBinAddr: 0x10000489C, symSize: 0x14 }
  - { offsetInCU: 0x7758, offset: 0x144D8, size: 0x8, addend: 0x0, symName: __ZNSt3__16vectorIP7LocacaoNS_9allocatorIS2_EEE22__base_destruct_at_endB7v160006EPS2_, symObjAddr: 0x1084, symBinAddr: 0x1000048B0, symSize: 0xA0 }
  - { offsetInCU: 0x779A, offset: 0x1451A, size: 0x8, addend: 0x0, symName: __ZNKSt3__16vectorIP7LocacaoNS_9allocatorIS2_EEE17__annotate_shrinkB7v160006Em, symObjAddr: 0x1124, symBinAddr: 0x100004950, symSize: 0xB4 }
  - { offsetInCU: 0x77CD, offset: 0x1454D, size: 0x8, addend: 0x0, symName: __ZNSt3__116allocator_traitsINS_9allocatorIP7LocacaoEEE7destroyB7v160006IS3_vEEvRS4_PT_, symObjAddr: 0x11D8, symBinAddr: 0x100004A04, symSize: 0x2C }
  - { offsetInCU: 0x7809, offset: 0x14589, size: 0x8, addend: 0x0, symName: __ZNSt3__16vectorIP7LocacaoNS_9allocatorIS2_EEE7__allocB7v160006Ev, symObjAddr: 0x1204, symBinAddr: 0x100004A30, symSize: 0x28 }
  - { offsetInCU: 0x782D, offset: 0x145AD, size: 0x8, addend: 0x0, symName: __ZNSt3__19allocatorIP7LocacaoE7destroyB7v160006EPS2_, symObjAddr: 0x1240, symBinAddr: 0x100004A6C, symSize: 0x14 }
  - { offsetInCU: 0x785F, offset: 0x145DF, size: 0x8, addend: 0x0, symName: __ZNSt3__117__compressed_pairIPP7LocacaoNS_9allocatorIS2_EEE6secondB7v160006Ev, symObjAddr: 0x1254, symBinAddr: 0x100004A80, symSize: 0x24 }
  - { offsetInCU: 0x7883, offset: 0x14603, size: 0x8, addend: 0x0, symName: __ZNSt3__122__compressed_pair_elemINS_9allocatorIP7LocacaoEELi1ELb1EE5__getB7v160006Ev, symObjAddr: 0x1278, symBinAddr: 0x100004AA4, symSize: 0x14 }
  - { offsetInCU: 0x78A7, offset: 0x14627, size: 0x8, addend: 0x0, symName: __ZNKSt3__16vectorIP7LocacaoNS_9allocatorIS2_EEE31__annotate_contiguous_containerB7v160006EPKvS7_S7_S7_, symObjAddr: 0x128C, symBinAddr: 0x100004AB8, symSize: 0x20 }
  - { offsetInCU: 0x78FB, offset: 0x1467B, size: 0x8, addend: 0x0, symName: __ZNKSt3__16vectorIP7LocacaoNS_9allocatorIS2_EEE4dataB7v160006Ev, symObjAddr: 0x12AC, symBinAddr: 0x100004AD8, symSize: 0x28 }
  - { offsetInCU: 0x791F, offset: 0x1469F, size: 0x8, addend: 0x0, symName: __ZNKSt3__16vectorIP7LocacaoNS_9allocatorIS2_EEE8capacityB7v160006Ev, symObjAddr: 0x12D4, symBinAddr: 0x100004B00, symSize: 0x40 }
  - { offsetInCU: 0x7943, offset: 0x146C3, size: 0x8, addend: 0x0, symName: __ZNKSt3__16vectorIP7LocacaoNS_9allocatorIS2_EEE9__end_capB7v160006Ev, symObjAddr: 0x1314, symBinAddr: 0x100004B40, symSize: 0x28 }
  - { offsetInCU: 0x7967, offset: 0x146E7, size: 0x8, addend: 0x0, symName: __ZNKSt3__117__compressed_pairIPP7LocacaoNS_9allocatorIS2_EEE5firstB7v160006Ev, symObjAddr: 0x133C, symBinAddr: 0x100004B68, symSize: 0x24 }
  - { offsetInCU: 0x798B, offset: 0x1470B, size: 0x8, addend: 0x0, symName: __ZNKSt3__122__compressed_pair_elemIPP7LocacaoLi0ELb0EE5__getB7v160006Ev, symObjAddr: 0x1360, symBinAddr: 0x100004B8C, symSize: 0x14 }
  - { offsetInCU: 0x79AF, offset: 0x1472F, size: 0x8, addend: 0x0, symName: __ZNSt3__16vectorIP7LocacaoNS_9allocatorIS2_EEED2B7v160006Ev, symObjAddr: 0x1374, symBinAddr: 0x100004BA0, symSize: 0x3C }
  - { offsetInCU: 0x79D7, offset: 0x14757, size: 0x8, addend: 0x0, symName: __ZNSt3__16vectorIP7LocacaoNS_9allocatorIS2_EEE16__destroy_vectorC1ERS5_, symObjAddr: 0x13B0, symBinAddr: 0x100004BDC, symSize: 0x34 }
  - { offsetInCU: 0x7A0E, offset: 0x1478E, size: 0x8, addend: 0x0, symName: __ZNSt3__16vectorIP7LocacaoNS_9allocatorIS2_EEE16__destroy_vectorclB7v160006Ev, symObjAddr: 0x13E4, symBinAddr: 0x100004C10, symSize: 0x9C }
  - { offsetInCU: 0x7A32, offset: 0x147B2, size: 0x8, addend: 0x0, symName: __ZNSt3__16vectorIP7LocacaoNS_9allocatorIS2_EEE16__destroy_vectorC2ERS5_, symObjAddr: 0x1480, symBinAddr: 0x100004CAC, symSize: 0x20 }
  - { offsetInCU: 0x7A69, offset: 0x147E9, size: 0x8, addend: 0x0, symName: __ZNKSt3__16vectorIP7LocacaoNS_9allocatorIS2_EEE17__annotate_deleteB7v160006Ev, symObjAddr: 0x14A0, symBinAddr: 0x100004CCC, symSize: 0xB8 }
  - { offsetInCU: 0x7A8D, offset: 0x1480D, size: 0x8, addend: 0x0, symName: __ZNSt3__16vectorIP7LocacaoNS_9allocatorIS2_EEE7__clearB7v160006Ev, symObjAddr: 0x1568, symBinAddr: 0x100004D94, symSize: 0x28 }
  - { offsetInCU: 0x7AB1, offset: 0x14831, size: 0x8, addend: 0x0, symName: __ZNSt3__116allocator_traitsINS_9allocatorIP7LocacaoEEE10deallocateB7v160006ERS4_PS3_m, symObjAddr: 0x1590, symBinAddr: 0x100004DBC, symSize: 0x34 }
  - { offsetInCU: 0x7AF2, offset: 0x14872, size: 0x8, addend: 0x0, symName: __ZNSt3__19allocatorIP7LocacaoE10deallocateB7v160006EPS2_m, symObjAddr: 0x15C4, symBinAddr: 0x100004DF0, symSize: 0x70 }
  - { offsetInCU: 0x7B32, offset: 0x148B2, size: 0x8, addend: 0x0, symName: __ZNSt3__16vectorIP7LocacaoNS_9allocatorIS2_EEE9__end_capB7v160006Ev, symObjAddr: 0x16B0, symBinAddr: 0x100004EDC, symSize: 0x28 }
  - { offsetInCU: 0x7B56, offset: 0x148D6, size: 0x8, addend: 0x0, symName: __ZNSt3__16vectorIP7LocacaoNS_9allocatorIS2_EEE22__construct_one_at_endB7v160006IJRKS2_EEEvDpOT_, symObjAddr: 0x16D8, symBinAddr: 0x100004F04, symSize: 0x98 }
  - { offsetInCU: 0x7BA2, offset: 0x14922, size: 0x8, addend: 0x0, symName: __ZNSt3__16vectorIP7LocacaoNS_9allocatorIS2_EEE21__push_back_slow_pathIRKS2_EEvOT_, symObjAddr: 0x1770, symBinAddr: 0x100004F9C, symSize: 0xE0 }
  - { offsetInCU: 0x7C00, offset: 0x14980, size: 0x8, addend: 0x0, symName: __ZNSt3__117__compressed_pairIPP7LocacaoNS_9allocatorIS2_EEE5firstB7v160006Ev, symObjAddr: 0x1850, symBinAddr: 0x10000507C, symSize: 0x24 }
  - { offsetInCU: 0x7C24, offset: 0x149A4, size: 0x8, addend: 0x0, symName: __ZNSt3__122__compressed_pair_elemIPP7LocacaoLi0ELb0EE5__getB7v160006Ev, symObjAddr: 0x1874, symBinAddr: 0x1000050A0, symSize: 0x14 }
  - { offsetInCU: 0x7C61, offset: 0x149E1, size: 0x8, addend: 0x0, symName: __ZNSt3__16vectorIP7LocacaoNS_9allocatorIS2_EEE21_ConstructTransactionC1B7v160006ERS5_m, symObjAddr: 0x1888, symBinAddr: 0x1000050B4, symSize: 0x3C }
  - { offsetInCU: 0x7CA7, offset: 0x14A27, size: 0x8, addend: 0x0, symName: __ZNSt3__116allocator_traitsINS_9allocatorIP7LocacaoEEE9constructB7v160006IS3_JRKS3_EvEEvRS4_PT_DpOT0_, symObjAddr: 0x18C4, symBinAddr: 0x1000050F0, symSize: 0x34 }
  - { offsetInCU: 0x7CFD, offset: 0x14A7D, size: 0x8, addend: 0x0, symName: __ZNSt3__16vectorIP7LocacaoNS_9allocatorIS2_EEE21_ConstructTransactionD1B7v160006Ev, symObjAddr: 0x18F8, symBinAddr: 0x100005124, symSize: 0x2C }
  - { offsetInCU: 0x7D25, offset: 0x14AA5, size: 0x8, addend: 0x0, symName: __ZNSt3__16vectorIP7LocacaoNS_9allocatorIS2_EEE21_ConstructTransactionC2B7v160006ERS5_m, symObjAddr: 0x1924, symBinAddr: 0x100005150, symSize: 0x44 }
  - { offsetInCU: 0x7D6B, offset: 0x14AEB, size: 0x8, addend: 0x0, symName: __ZNSt3__19allocatorIP7LocacaoE9constructB7v160006IS2_JRKS2_EEEvPT_DpOT0_, symObjAddr: 0x1968, symBinAddr: 0x100005194, symSize: 0x28 }
  - { offsetInCU: 0x7DBF, offset: 0x14B3F, size: 0x8, addend: 0x0, symName: __ZNSt3__16vectorIP7LocacaoNS_9allocatorIS2_EEE21_ConstructTransactionD2B7v160006Ev, symObjAddr: 0x1990, symBinAddr: 0x1000051BC, symSize: 0x20 }
  - { offsetInCU: 0x7DE6, offset: 0x14B66, size: 0x8, addend: 0x0, symName: __ZNKSt3__16vectorIP7LocacaoNS_9allocatorIS2_EEE11__recommendB7v160006Em, symObjAddr: 0x19B0, symBinAddr: 0x1000051DC, symSize: 0xB4 }
  - { offsetInCU: 0x7E3B, offset: 0x14BBB, size: 0x8, addend: 0x0, symName: __ZNSt3__114__split_bufferIP7LocacaoRNS_9allocatorIS2_EEEC1EmmS5_, symObjAddr: 0x1A64, symBinAddr: 0x100005290, symSize: 0x44 }
  - { offsetInCU: 0x7E90, offset: 0x14C10, size: 0x8, addend: 0x0, symName: __ZNSt3__114__split_bufferIP7LocacaoRNS_9allocatorIS2_EEED1Ev, symObjAddr: 0x1BC0, symBinAddr: 0x1000053EC, symSize: 0x2C }
  - { offsetInCU: 0x7EBA, offset: 0x14C3A, size: 0x8, addend: 0x0, symName: __ZNKSt3__16vectorIP7LocacaoNS_9allocatorIS2_EEE8max_sizeEv, symObjAddr: 0x1BEC, symBinAddr: 0x100005418, symSize: 0x74 }
  - { offsetInCU: 0x7EE2, offset: 0x14C62, size: 0x8, addend: 0x0, symName: __ZNKSt3__16vectorIP7LocacaoNS_9allocatorIS2_EEE20__throw_length_errorB7v160006Ev, symObjAddr: 0x1C60, symBinAddr: 0x10000548C, symSize: 0x1C }
  - { offsetInCU: 0x7F10, offset: 0x14C90, size: 0x8, addend: 0x0, symName: __ZNSt3__116allocator_traitsINS_9allocatorIP7LocacaoEEE8max_sizeB7v160006IS4_vEEmRKS4_, symObjAddr: 0x1CD4, symBinAddr: 0x100005500, symSize: 0x24 }
  - { offsetInCU: 0x7F3D, offset: 0x14CBD, size: 0x8, addend: 0x0, symName: __ZNKSt3__16vectorIP7LocacaoNS_9allocatorIS2_EEE7__allocB7v160006Ev, symObjAddr: 0x1CF8, symBinAddr: 0x100005524, symSize: 0x28 }
  - { offsetInCU: 0x7F61, offset: 0x14CE1, size: 0x8, addend: 0x0, symName: __ZNSt3__114numeric_limitsIlE3maxB7v160006Ev, symObjAddr: 0x1D20, symBinAddr: 0x10000554C, symSize: 0x14 }
  - { offsetInCU: 0x7F89, offset: 0x14D09, size: 0x8, addend: 0x0, symName: __ZNKSt3__16__lessImmEclB7v160006ERKmS3_, symObjAddr: 0x1D88, symBinAddr: 0x1000055B4, symSize: 0x34 }
  - { offsetInCU: 0x7FC9, offset: 0x14D49, size: 0x8, addend: 0x0, symName: __ZNKSt3__19allocatorIP7LocacaoE8max_sizeB7v160006Ev, symObjAddr: 0x1DBC, symBinAddr: 0x1000055E8, symSize: 0x14 }
  - { offsetInCU: 0x7FED, offset: 0x14D6D, size: 0x8, addend: 0x0, symName: __ZNKSt3__117__compressed_pairIPP7LocacaoNS_9allocatorIS2_EEE6secondB7v160006Ev, symObjAddr: 0x1DD0, symBinAddr: 0x1000055FC, symSize: 0x24 }
  - { offsetInCU: 0x8011, offset: 0x14D91, size: 0x8, addend: 0x0, symName: __ZNKSt3__122__compressed_pair_elemINS_9allocatorIP7LocacaoEELi1ELb1EE5__getB7v160006Ev, symObjAddr: 0x1DF4, symBinAddr: 0x100005620, symSize: 0x14 }
  - { offsetInCU: 0x8035, offset: 0x14DB5, size: 0x8, addend: 0x0, symName: __ZNSt3__123__libcpp_numeric_limitsIlLb1EE3maxB7v160006Ev, symObjAddr: 0x1E08, symBinAddr: 0x100005634, symSize: 0x8 }
  - { offsetInCU: 0x8049, offset: 0x14DC9, size: 0x8, addend: 0x0, symName: __ZNSt12length_errorC1B7v160006EPKc, symObjAddr: 0x1E74, symBinAddr: 0x1000056A0, symSize: 0x34 }
  - { offsetInCU: 0x807F, offset: 0x14DFF, size: 0x8, addend: 0x0, symName: __ZNSt12length_errorC2B7v160006EPKc, symObjAddr: 0x1EA8, symBinAddr: 0x1000056D4, symSize: 0x4C }
  - { offsetInCU: 0x80B5, offset: 0x14E35, size: 0x8, addend: 0x0, symName: __ZNSt3__114__split_bufferIP7LocacaoRNS_9allocatorIS2_EEEC2EmmS5_, symObjAddr: 0x1F48, symBinAddr: 0x100005774, symSize: 0xD4 }
  - { offsetInCU: 0x8127, offset: 0x14EA7, size: 0x8, addend: 0x0, symName: __ZNSt3__117__compressed_pairIPP7LocacaoRNS_9allocatorIS2_EEEC1B7v160006IDnS6_EEOT_OT0_, symObjAddr: 0x201C, symBinAddr: 0x100005848, symSize: 0x3C }
  - { offsetInCU: 0x817D, offset: 0x14EFD, size: 0x8, addend: 0x0, symName: __ZNSt3__114__split_bufferIP7LocacaoRNS_9allocatorIS2_EEE7__allocB7v160006Ev, symObjAddr: 0x2098, symBinAddr: 0x1000058C4, symSize: 0x28 }
  - { offsetInCU: 0x81A1, offset: 0x14F21, size: 0x8, addend: 0x0, symName: __ZNSt3__114__split_bufferIP7LocacaoRNS_9allocatorIS2_EEE9__end_capB7v160006Ev, symObjAddr: 0x20C0, symBinAddr: 0x1000058EC, symSize: 0x28 }
  - { offsetInCU: 0x81C5, offset: 0x14F45, size: 0x8, addend: 0x0, symName: __ZNSt3__117__compressed_pairIPP7LocacaoRNS_9allocatorIS2_EEEC2B7v160006IDnS6_EEOT_OT0_, symObjAddr: 0x20E8, symBinAddr: 0x100005914, symSize: 0x48 }
  - { offsetInCU: 0x821B, offset: 0x14F9B, size: 0x8, addend: 0x0, symName: __ZNSt3__122__compressed_pair_elemIRNS_9allocatorIP7LocacaoEELi1ELb0EEC2B7v160006IS5_vEEOT_, symObjAddr: 0x2130, symBinAddr: 0x10000595C, symSize: 0x20 }
  - { offsetInCU: 0x825B, offset: 0x14FDB, size: 0x8, addend: 0x0, symName: __ZNSt3__19allocatorIP7LocacaoE8allocateB7v160006Em, symObjAddr: 0x2150, symBinAddr: 0x10000597C, symSize: 0x84 }
  - { offsetInCU: 0x828D, offset: 0x1500D, size: 0x8, addend: 0x0, symName: __ZNSt3__117__compressed_pairIPP7LocacaoRNS_9allocatorIS2_EEE6secondB7v160006Ev, symObjAddr: 0x21D4, symBinAddr: 0x100005A00, symSize: 0x28 }
  - { offsetInCU: 0x82B1, offset: 0x15031, size: 0x8, addend: 0x0, symName: __ZNSt3__122__compressed_pair_elemIRNS_9allocatorIP7LocacaoEELi1ELb0EE5__getB7v160006Ev, symObjAddr: 0x21FC, symBinAddr: 0x100005A28, symSize: 0x18 }
  - { offsetInCU: 0x82D5, offset: 0x15055, size: 0x8, addend: 0x0, symName: __ZNSt3__117__compressed_pairIPP7LocacaoRNS_9allocatorIS2_EEE5firstB7v160006Ev, symObjAddr: 0x2214, symBinAddr: 0x100005A40, symSize: 0x24 }
  - { offsetInCU: 0x82F9, offset: 0x15079, size: 0x8, addend: 0x0, symName: __ZNSt3__116reverse_iteratorIPP7LocacaoEC1B7v160006ES3_, symObjAddr: 0x2320, symBinAddr: 0x100005B4C, symSize: 0x34 }
  - { offsetInCU: 0x832F, offset: 0x150AF, size: 0x8, addend: 0x0, symName: __ZNKSt3__116reverse_iteratorIPP7LocacaoE4baseB7v160006Ev, symObjAddr: 0x2354, symBinAddr: 0x100005B80, symSize: 0x18 }
  - { offsetInCU: 0x8353, offset: 0x150D3, size: 0x8, addend: 0x0, symName: __ZNKSt3__16vectorIP7LocacaoNS_9allocatorIS2_EEE14__annotate_newB7v160006Em, symObjAddr: 0x23A8, symBinAddr: 0x100005BD4, symSize: 0xAC }
  - { offsetInCU: 0x8386, offset: 0x15106, size: 0x8, addend: 0x0, symName: __ZNKSt3__116reverse_iteratorIPP7LocacaoEdeB7v160006Ev, symObjAddr: 0x24FC, symBinAddr: 0x100005D28, symSize: 0x28 }
  - { offsetInCU: 0x83B9, offset: 0x15139, size: 0x8, addend: 0x0, symName: __ZNSt3__116reverse_iteratorIPP7LocacaoEppB7v160006Ev, symObjAddr: 0x2524, symBinAddr: 0x100005D50, symSize: 0x20 }
  - { offsetInCU: 0x83E2, offset: 0x15162, size: 0x8, addend: 0x0, symName: __ZNSt3__119__to_address_helperINS_16reverse_iteratorIPP7LocacaoEEvE6__callB7v160006ERKS5_, symObjAddr: 0x25BC, symBinAddr: 0x100005DE8, symSize: 0x4C }
  - { offsetInCU: 0x8404, offset: 0x15184, size: 0x8, addend: 0x0, symName: __ZNKSt3__116reverse_iteratorIPP7LocacaoEptB7v160006Ev, symObjAddr: 0x2608, symBinAddr: 0x100005E34, symSize: 0x24 }
  - { offsetInCU: 0x844B, offset: 0x151CB, size: 0x8, addend: 0x0, symName: __ZNKSt3__111__move_loopINS_17_ClassicAlgPolicyEEclB7v160006INS_16reverse_iteratorIPP7LocacaoEES8_S8_EENS_4pairIT_T1_EESA_T0_SB_, symObjAddr: 0x28BC, symBinAddr: 0x1000060E8, symSize: 0xA0 }
  - { offsetInCU: 0x84B9, offset: 0x15239, size: 0x8, addend: 0x0, symName: __ZNSt3__18_IterOpsINS_17_ClassicAlgPolicyEE11__iter_moveB7v160006IRNS_16reverse_iteratorIPP7LocacaoEEEENS_9enable_ifIXsr12is_referenceIDTdeclsr3stdE7declvalIRT_EEEEE5valueEDTclsr3stdE4movedeclsr3stdE7declvalISC_EEEEE4typeEOSB_, symObjAddr: 0x2ABC, symBinAddr: 0x1000062E8, symSize: 0x28 }
  - { offsetInCU: 0x84E4, offset: 0x15264, size: 0x8, addend: 0x0, symName: __ZNSt3__18_IterOpsINS_17_ClassicAlgPolicyEE25__validate_iter_referenceB7v160006IRNS_16reverse_iteratorIPP7LocacaoEEEEvv, symObjAddr: 0x2AE4, symBinAddr: 0x100006310, symSize: 0x4 }
  - { offsetInCU: 0x8501, offset: 0x15281, size: 0x8, addend: 0x0, symName: __ZNSt3__118__unwrap_iter_implINS_16reverse_iteratorIPP7LocacaoEELb0EE8__unwrapB7v160006ES5_, symObjAddr: 0x2AE8, symBinAddr: 0x100006314, symSize: 0x24 }
  - { offsetInCU: 0x8523, offset: 0x152A3, size: 0x8, addend: 0x0, symName: __ZNSt3__14pairINS_16reverse_iteratorIPP7LocacaoEES5_EC1B7v160006ERKS5_S8_, symObjAddr: 0x2B0C, symBinAddr: 0x100006338, symSize: 0x3C }
  - { offsetInCU: 0x8567, offset: 0x152E7, size: 0x8, addend: 0x0, symName: __ZNSt3__14pairINS_16reverse_iteratorIPP7LocacaoEES5_EC2B7v160006ERKS5_S8_, symObjAddr: 0x2B48, symBinAddr: 0x100006374, symSize: 0x34 }
  - { offsetInCU: 0x85AB, offset: 0x1532B, size: 0x8, addend: 0x0, symName: __ZNSt3__118__unwrap_iter_implINS_16reverse_iteratorIPP7LocacaoEELb0EE8__rewrapB7v160006ES5_S5_, symObjAddr: 0x2B7C, symBinAddr: 0x1000063A8, symSize: 0x2C }
  - { offsetInCU: 0x85D7, offset: 0x15357, size: 0x8, addend: 0x0, symName: __ZNSt3__116reverse_iteratorIPP7LocacaoEC2B7v160006ES3_, symObjAddr: 0x2BA8, symBinAddr: 0x1000063D4, symSize: 0x28 }
  - { offsetInCU: 0x860D, offset: 0x1538D, size: 0x8, addend: 0x0, symName: __ZNSt3__114__split_bufferIP7LocacaoRNS_9allocatorIS2_EEED2Ev, symObjAddr: 0x2BD0, symBinAddr: 0x1000063FC, symSize: 0x80 }
  - { offsetInCU: 0x8638, offset: 0x153B8, size: 0x8, addend: 0x0, symName: __ZNSt3__114__split_bufferIP7LocacaoRNS_9allocatorIS2_EEE5clearB7v160006Ev, symObjAddr: 0x2C50, symBinAddr: 0x10000647C, symSize: 0x28 }
  - { offsetInCU: 0x865C, offset: 0x153DC, size: 0x8, addend: 0x0, symName: __ZNKSt3__114__split_bufferIP7LocacaoRNS_9allocatorIS2_EEE8capacityB7v160006Ev, symObjAddr: 0x2C78, symBinAddr: 0x1000064A4, symSize: 0x40 }
  - { offsetInCU: 0x8680, offset: 0x15400, size: 0x8, addend: 0x0, symName: __ZNSt3__114__split_bufferIP7LocacaoRNS_9allocatorIS2_EEE17__destruct_at_endB7v160006EPS2_, symObjAddr: 0x2CB8, symBinAddr: 0x1000064E4, symSize: 0x2C }
  - { offsetInCU: 0x86B1, offset: 0x15431, size: 0x8, addend: 0x0, symName: __ZNSt3__114__split_bufferIP7LocacaoRNS_9allocatorIS2_EEE17__destruct_at_endB7v160006EPS2_NS_17integral_constantIbLb0EEE, symObjAddr: 0x2CE4, symBinAddr: 0x100006510, symSize: 0x94 }
  - { offsetInCU: 0x86F1, offset: 0x15471, size: 0x8, addend: 0x0, symName: __ZNKSt3__114__split_bufferIP7LocacaoRNS_9allocatorIS2_EEE9__end_capB7v160006Ev, symObjAddr: 0x2D78, symBinAddr: 0x1000065A4, symSize: 0x28 }
  - { offsetInCU: 0x8715, offset: 0x15495, size: 0x8, addend: 0x0, symName: __ZNKSt3__117__compressed_pairIPP7LocacaoRNS_9allocatorIS2_EEE5firstB7v160006Ev, symObjAddr: 0x2DA0, symBinAddr: 0x1000065CC, symSize: 0x24 }
  - { offsetInCU: 0x8739, offset: 0x154B9, size: 0x8, addend: 0x0, symName: __ZNKSt3__16vectorIP7LocacaoNS_9allocatorIS2_EEE20__throw_out_of_rangeB7v160006Ev, symObjAddr: 0x2DC4, symBinAddr: 0x1000065F0, symSize: 0x1C }
  - { offsetInCU: 0x875D, offset: 0x154DD, size: 0x8, addend: 0x0, symName: __ZNSt12out_of_rangeC1B7v160006EPKc, symObjAddr: 0x2E44, symBinAddr: 0x100006670, symSize: 0x34 }
  - { offsetInCU: 0x8793, offset: 0x15513, size: 0x8, addend: 0x0, symName: __ZNSt12out_of_rangeC2B7v160006EPKc, symObjAddr: 0x2E78, symBinAddr: 0x1000066A4, symSize: 0x4C }
  - { offsetInCU: 0x4704, offset: 0x19CBF, size: 0x8, addend: 0x0, symName: __ZN18LocacaoResidencialC2ENSt3__112basic_stringIcNS0_11char_traitsIcEENS0_9allocatorIcEEEEdii, symObjAddr: 0x0, symBinAddr: 0x1000066F0, symSize: 0xB0 }
  - { offsetInCU: 0x4767, offset: 0x19D22, size: 0x8, addend: 0x0, symName: __ZN18LocacaoResidencialC1ENSt3__112basic_stringIcNS0_11char_traitsIcEENS0_9allocatorIcEEEEdii, symObjAddr: 0xBC, symBinAddr: 0x1000067A0, symSize: 0x4C }
  - { offsetInCU: 0x47CA, offset: 0x19D85, size: 0x8, addend: 0x0, symName: __ZN18LocacaoResidencialD2Ev, symObjAddr: 0x108, symBinAddr: 0x1000067EC, symSize: 0x2C }
  - { offsetInCU: 0x47F4, offset: 0x19DAF, size: 0x8, addend: 0x0, symName: __ZN18LocacaoResidencialD1Ev, symObjAddr: 0x134, symBinAddr: 0x100006818, symSize: 0x2C }
  - { offsetInCU: 0x481E, offset: 0x19DD9, size: 0x8, addend: 0x0, symName: __ZN18LocacaoResidencialD0Ev, symObjAddr: 0x160, symBinAddr: 0x100006844, symSize: 0x58 }
  - { offsetInCU: 0x4848, offset: 0x19E03, size: 0x8, addend: 0x0, symName: __ZN18LocacaoResidencial10getQuartosEv, symObjAddr: 0x1B8, symBinAddr: 0x10000689C, symSize: 0x18 }
  - { offsetInCU: 0x486E, offset: 0x19E29, size: 0x8, addend: 0x0, symName: __ZN18LocacaoResidencial13calcularTotalEi, symObjAddr: 0x1D0, symBinAddr: 0x1000068B4, symSize: 0x140 }
  - { offsetInCU: 0x48A2, offset: 0x19E5D, size: 0x8, addend: 0x0, symName: __ZN18LocacaoResidencial8imprimirEv, symObjAddr: 0x344, symBinAddr: 0x1000069F4, symSize: 0x154 }
  - { offsetInCU: 0x26, offset: 0x19EAE, size: 0x8, addend: 0x0, symName: _main, symObjAddr: 0x0, symBinAddr: 0x100006B48, symSize: 0x2C }
  - { offsetInCU: 0x34, offset: 0x19EBC, size: 0x8, addend: 0x0, symName: _main, symObjAddr: 0x0, symBinAddr: 0x100006B48, symSize: 0x2C }
  - { offsetInCU: 0x3B85, offset: 0x1DA62, size: 0x8, addend: 0x0, symName: __ZNSt3__14endlB7v160006IcNS_11char_traitsIcEEEERNS_13basic_ostreamIT_T0_EES7_, symObjAddr: 0x638, symBinAddr: 0x1000071A0, symSize: 0x58 }
  - { offsetInCU: 0x661C, offset: 0x204F9, size: 0x8, addend: 0x0, symName: __Z7testeP2v, symObjAddr: 0x0, symBinAddr: 0x100006B74, symSize: 0x5CC }
  - { offsetInCU: 0x66A1, offset: 0x2057E, size: 0x8, addend: 0x0, symName: __ZNSt3__112basic_stringIcNS_11char_traitsIcEENS_9allocatorIcEEEC1B7v160006IDnEEPKc, symObjAddr: 0x5CC, symBinAddr: 0x100007140, symSize: 0x34 }
  - { offsetInCU: 0x6767, offset: 0x20644, size: 0x8, addend: 0x0, symName: __ZNSt3__113basic_ostreamIcNS_11char_traitsIcEEElsB7v160006EPFRS3_S4_E, symObjAddr: 0x60C, symBinAddr: 0x100007174, symSize: 0x2C }
  - { offsetInCU: 0x6799, offset: 0x20676, size: 0x8, addend: 0x0, symName: __ZNSt3__112basic_stringIcNS_11char_traitsIcEENS_9allocatorIcEEEC2B7v160006IDnEEPKc, symObjAddr: 0x690, symBinAddr: 0x1000071F8, symSize: 0x60 }
...
